; Function Attrs: null_pointer_is_valid sspstrong uwtable
define internal noundef zeroext i1 @dissect_cmee_parameter(ptr noundef %0, ptr noundef readonly captures(none) %1, ptr noundef %2, i32 noundef %3, i32 noundef %4, i16 noundef zeroext %5, ptr noundef readonly captures(none) %6, i32 noundef %7, i32 noundef %8, ptr readnone captures(none) %9, ptr readnone captures(none) %10) #0 {
  %12 = icmp eq i32 %4, 2
  %13 = icmp eq i16 %5, 61
  %or.cond = and i1 %12, %13
  br i1 %or.cond, label %17, label %14

14:                                               ; preds = %11
  %15 = icmp eq i32 %4, 1
  %16 = icmp eq i16 %5, 58
  %or.cond5 = and i1 %15, %16
  %.not = icmp eq i32 %7, 0
  %or.cond18 = and i1 %or.cond5, %.not
  br i1 %or.cond18, label %18, label %32

17:                                               ; preds = %11
  %.not.old = icmp eq i32 %7, 0
  br i1 %.not.old, label %18, label %32

18:                                               ; preds = %14, %17
  %19 = getelementptr inbounds nuw i8, ptr %1, i64 408
  %20 = load ptr, ptr %19, align 8
  %21 = add i32 %8, 1
  %22 = sext i32 %21 to i64
  %23 = tail call noalias ptr @wmem_alloc(ptr noundef %20, i64 noundef %22) #12
  %24 = sext i32 %8 to i64
  %25 = icmp ne i32 %21, -1
  tail call void @llvm.assume(i1 %25)
  %26 = tail call ptr @__memcpy_chk(ptr noundef %23, ptr noundef readonly %6, i64 noundef range(i64 -2147483648, 2147483648) %24, i64 noundef %22) #13, !alias.scope !75
  %27 = getelementptr i8, ptr %23, i64 %24
  store i8 0, ptr %27, align 1
  %28 = tail call i64 @g_ascii_strtoull(ptr noundef %23, ptr noundef null, i32 noundef 10)
  %29 = trunc i64 %28 to i32
  %30 = load i32, ptr @hf_cmee, align 4
  %31 = tail call ptr @proto_tree_add_uint(ptr noundef %2, i32 noundef %30, ptr noundef %0, i32 noundef %3, i32 noundef %8, i32 noundef %29)
  br label %32

32:                                               ; preds = %17, %14, %18
  %.0 = phi i1 [ true, %18 ], [ false, %14 ], [ false, %17 ]
  ret i1 %.0
}